target datalayout = "e-m:e-p270:32:32-p271:32:32-p272:64:64-i64:64-i128:128-f80:128-n8:16:32:64-S128"
target triple = "x86_64-pc-linux-gnu"

%"class.std::__cxx11::basic_string" = type { %"struct.std::__cxx11::basic_string<char>::_Alloc_hider", i64, %union.anon }
%"struct.std::__cxx11::basic_string<char>::_Alloc_hider" = type { ptr }
%union.anon = type { i64, [8 x i8] }
%"class.std::vector" = type { %"struct.std::_Vector_base" }
%"struct.std::_Vector_base" = type { %"struct.std::_Vector_base<const Luau::Type *, std::allocator<const Luau::Type *>>::_Vector_impl" }
%"struct.std::_Vector_base<const Luau::Type *, std::allocator<const Luau::Type *>>::_Vector_impl" = type { %"struct.std::_Vector_base<const Luau::Type *, std::allocator<const Luau::Type *>>::_Vector_impl_data" }
%"struct.std::_Vector_base<const Luau::Type *, std::allocator<const Luau::Type *>>::_Vector_impl_data" = type { ptr, ptr, ptr }
%"class.std::vector.27" = type { %"struct.std::_Vector_base.28" }
%"struct.std::_Vector_base.28" = type { %"struct.std::_Vector_base<const Luau::TypePackVar *, std::allocator<const Luau::TypePackVar *>>::_Vector_impl" }
%"struct.std::_Vector_base<const Luau::TypePackVar *, std::allocator<const Luau::TypePackVar *>>::_Vector_impl" = type { %"struct.std::_Vector_base<const Luau::TypePackVar *, std::allocator<const Luau::TypePackVar *>>::_Vector_impl_data" }
%"struct.std::_Vector_base<const Luau::TypePackVar *, std::allocator<const Luau::TypePackVar *>>::_Vector_impl_data" = type { ptr, ptr, ptr }
%"struct.Luau::AstName" = type { ptr }
%"class.std::_Function_base" = type { %"union.std::_Any_data", ptr }
%"union.std::_Any_data" = type { %"union.std::_Nocopy_types" }
%"union.std::_Nocopy_types" = type { { i64, i64 } }
%"class.std::optional.98" = type { %"struct.std::_Optional_base.99" }
%"struct.std::_Optional_base.99" = type { %"struct.std::_Optional_payload.101" }
%"struct.std::_Optional_payload.101" = type { %"struct.std::_Optional_payload_base.base.103", [7 x i8] }
%"struct.std::_Optional_payload_base.base.103" = type <{ %"union.std::_Optional_payload_base<Luau::AstName>::_Storage", i8 }>
%"union.std::_Optional_payload_base<Luau::AstName>::_Storage" = type { %"struct.Luau::AstName" }
%"struct.Luau::TypeFunctionInstanceType" = type { %"struct.Luau::NotNull.97", %"class.std::vector", %"class.std::vector.27", %"class.std::optional.98", %"struct.Luau::UserDefinedFunctionData" }
%"struct.Luau::NotNull.97" = type { ptr }
%"struct.Luau::UserDefinedFunctionData" = type { %"class.std::weak_ptr", ptr, %"class.Luau::DenseHashMap.106", %"class.Luau::DenseHashMap.109" }
%"class.std::weak_ptr" = type { %"class.std::__weak_ptr" }
%"class.std::__weak_ptr" = type { ptr, %"class.std::__weak_count" }
%"class.std::__weak_count" = type { ptr }
%"class.Luau::DenseHashMap.106" = type { %"class.Luau::detail::DenseHashTable.107" }
%"class.Luau::detail::DenseHashTable.107" = type <{ ptr, i64, i64, %"class.std::__cxx11::basic_string", [8 x i8] }>
%"class.Luau::DenseHashMap.109" = type { %"class.Luau::detail::DenseHashTable.110" }
%"class.Luau::detail::DenseHashTable.110" = type <{ ptr, i64, i64, %"class.std::__cxx11::basic_string", [8 x i8] }>
%"struct.Luau::TypeFunction" = type { %"class.std::__cxx11::basic_string", %"class.std::function" }
%"class.std::function" = type { %"class.std::_Function_base", ptr }

@.str.58 = private unnamed_addr constant [4 x i8] c"add\00", align 1
@.str.59 = private unnamed_addr constant [4 x i8] c"sub\00", align 1
@.str.60 = private unnamed_addr constant [4 x i8] c"mul\00", align 1
@.str.61 = private unnamed_addr constant [4 x i8] c"div\00", align 1
@.str.62 = private unnamed_addr constant [5 x i8] c"idiv\00", align 1
@.str.63 = private unnamed_addr constant [4 x i8] c"pow\00", align 1
@.str.64 = private unnamed_addr constant [4 x i8] c"mod\00", align 1

; Function Attrs: inlinehint mustprogress nounwind uwtable
define linkonce_odr dso_local noundef zeroext i1 @_ZSteqIcSt11char_traitsIcESaIcEEbRKNSt7__cxx1112basic_stringIT_T0_T1_EEPKS5_(ptr noundef nonnull align 8 dereferenceable(32) %0, ptr noundef %1) #8 comdat {
  %3 = alloca ptr, align 8
  %4 = alloca ptr, align 8
  store ptr %0, ptr %3, align 8, !tbaa !66
  store ptr %1, ptr %4, align 8, !tbaa !256
  %5 = load ptr, ptr %3, align 8, !tbaa !66
  %6 = load ptr, ptr %4, align 8, !tbaa !256
  %7 = call noundef i32 @_ZNKSt7__cxx1112basic_stringIcSt11char_traitsIcESaIcEE7compareEPKc(ptr noundef nonnull align 8 dereferenceable(32) %5, ptr noundef %6) #4
  %8 = icmp eq i32 %7, 0
  ret i1 %8
}

; Function Attrs: mustprogress nounwind uwtable
define linkonce_odr dso_local noundef ptr @_ZNK4Luau7NotNullIKNS_12TypeFunctionEEptEv(ptr noundef nonnull align 8 dereferenceable(8) %0) #6 comdat align 2 {
  %2 = alloca ptr, align 8
  store ptr %0, ptr %2, align 8, !tbaa !267
  %3 = load ptr, ptr %2, align 8
  %4 = getelementptr inbounds nuw %"struct.Luau::NotNull.97", ptr %3, i32 0, i32 0
  %5 = load ptr, ptr %4, align 8, !tbaa !269
  ret ptr %5
}

; Function Attrs: mustprogress uwtable
define dso_local noundef zeroext i1 @_ZN4Luau28TypeFunctionReductionGuesser22isNumericBinopFunctionERKNS_24TypeFunctionInstanceTypeE(ptr noundef nonnull align 8 dereferenceable(176) %0, ptr noundef nonnull align 8 dereferenceable(224) %1) #5 align 2 {
  %3 = alloca ptr, align 8
  %4 = alloca ptr, align 8
  store ptr %0, ptr %3, align 8, !tbaa !8
  store ptr %1, ptr %4, align 8, !tbaa !140
  %5 = load ptr, ptr %4, align 8, !tbaa !140
  %6 = getelementptr inbounds nuw %"struct.Luau::TypeFunctionInstanceType", ptr %5, i32 0, i32 0
  %7 = call noundef ptr @_ZNK4Luau7NotNullIKNS_12TypeFunctionEEptEv(ptr noundef nonnull align 8 dereferenceable(8) %6) #4
  %8 = getelementptr inbounds nuw %"struct.Luau::TypeFunction", ptr %7, i32 0, i32 0
  %9 = call noundef zeroext i1 @_ZSteqIcSt11char_traitsIcESaIcEEbRKNSt7__cxx1112basic_stringIT_T0_T1_EEPKS5_(ptr noundef nonnull align 8 dereferenceable(32) %8, ptr noundef @.str.58)
  br i1 %9, label %46, label %10

10:                                               ; preds = %2
  %11 = load ptr, ptr %4, align 8, !tbaa !140
  %12 = getelementptr inbounds nuw %"struct.Luau::TypeFunctionInstanceType", ptr %11, i32 0, i32 0
  %13 = call noundef ptr @_ZNK4Luau7NotNullIKNS_12TypeFunctionEEptEv(ptr noundef nonnull align 8 dereferenceable(8) %12) #4
  %14 = getelementptr inbounds nuw %"struct.Luau::TypeFunction", ptr %13, i32 0, i32 0
  %15 = call noundef zeroext i1 @_ZSteqIcSt11char_traitsIcESaIcEEbRKNSt7__cxx1112basic_stringIT_T0_T1_EEPKS5_(ptr noundef nonnull align 8 dereferenceable(32) %14, ptr noundef @.str.59)
  br i1 %15, label %46, label %16

16:                                               ; preds = %10
  %17 = load ptr, ptr %4, align 8, !tbaa !140
  %18 = getelementptr inbounds nuw %"struct.Luau::TypeFunctionInstanceType", ptr %17, i32 0, i32 0
  %19 = call noundef ptr @_ZNK4Luau7NotNullIKNS_12TypeFunctionEEptEv(ptr noundef nonnull align 8 dereferenceable(8) %18) #4
  %20 = getelementptr inbounds nuw %"struct.Luau::TypeFunction", ptr %19, i32 0, i32 0
  %21 = call noundef zeroext i1 @_ZSteqIcSt11char_traitsIcESaIcEEbRKNSt7__cxx1112basic_stringIT_T0_T1_EEPKS5_(ptr noundef nonnull align 8 dereferenceable(32) %20, ptr noundef @.str.60)
  br i1 %21, label %46, label %22

22:                                               ; preds = %16
  %23 = load ptr, ptr %4, align 8, !tbaa !140
  %24 = getelementptr inbounds nuw %"struct.Luau::TypeFunctionInstanceType", ptr %23, i32 0, i32 0
  %25 = call noundef ptr @_ZNK4Luau7NotNullIKNS_12TypeFunctionEEptEv(ptr noundef nonnull align 8 dereferenceable(8) %24) #4
  %26 = getelementptr inbounds nuw %"struct.Luau::TypeFunction", ptr %25, i32 0, i32 0
  %27 = call noundef zeroext i1 @_ZSteqIcSt11char_traitsIcESaIcEEbRKNSt7__cxx1112basic_stringIT_T0_T1_EEPKS5_(ptr noundef nonnull align 8 dereferenceable(32) %26, ptr noundef @.str.61)
  br i1 %27, label %46, label %28

28:                                               ; preds = %22
  %29 = load ptr, ptr %4, align 8, !tbaa !140
  %30 = getelementptr inbounds nuw %"struct.Luau::TypeFunctionInstanceType", ptr %29, i32 0, i32 0
  %31 = call noundef ptr @_ZNK4Luau7NotNullIKNS_12TypeFunctionEEptEv(ptr noundef nonnull align 8 dereferenceable(8) %30) #4
  %32 = getelementptr inbounds nuw %"struct.Luau::TypeFunction", ptr %31, i32 0, i32 0
  %33 = call noundef zeroext i1 @_ZSteqIcSt11char_traitsIcESaIcEEbRKNSt7__cxx1112basic_stringIT_T0_T1_EEPKS5_(ptr noundef nonnull align 8 dereferenceable(32) %32, ptr noundef @.str.62)
  br i1 %33, label %46, label %34

34:                                               ; preds = %28
  %35 = load ptr, ptr %4, align 8, !tbaa !140
  %36 = getelementptr inbounds nuw %"struct.Luau::TypeFunctionInstanceType", ptr %35, i32 0, i32 0
  %37 = call noundef ptr @_ZNK4Luau7NotNullIKNS_12TypeFunctionEEptEv(ptr noundef nonnull align 8 dereferenceable(8) %36) #4
  %38 = getelementptr inbounds nuw %"struct.Luau::TypeFunction", ptr %37, i32 0, i32 0
  %39 = call noundef zeroext i1 @_ZSteqIcSt11char_traitsIcESaIcEEbRKNSt7__cxx1112basic_stringIT_T0_T1_EEPKS5_(ptr noundef nonnull align 8 dereferenceable(32) %38, ptr noundef @.str.63)
  br i1 %39, label %46, label %40

40:                                               ; preds = %34
  %41 = load ptr, ptr %4, align 8, !tbaa !140
  %42 = getelementptr inbounds nuw %"struct.Luau::TypeFunctionInstanceType", ptr %41, i32 0, i32 0
  %43 = call noundef ptr @_ZNK4Luau7NotNullIKNS_12TypeFunctionEEptEv(ptr noundef nonnull align 8 dereferenceable(8) %42) #4
  %44 = getelementptr inbounds nuw %"struct.Luau::TypeFunction", ptr %43, i32 0, i32 0
  %45 = call noundef zeroext i1 @_ZSteqIcSt11char_traitsIcESaIcEEbRKNSt7__cxx1112basic_stringIT_T0_T1_EEPKS5_(ptr noundef nonnull align 8 dereferenceable(32) %44, ptr noundef @.str.64)
  br label %46

46:                                               ; preds = %40, %34, %28, %22, %16, %10, %2
  %47 = phi i1 [ true, %34 ], [ true, %28 ], [ true, %22 ], [ true, %16 ], [ true, %10 ], [ true, %2 ], [ %45, %40 ]
  ret i1 %47
}