; Function Attrs: mustprogress nounwind uwtable
define dso_local noundef zeroext i1 @_ZN4Luau28TypeFunctionReductionGuesser22isNumericBinopFunctionERKNS_24TypeFunctionInstanceTypeE(ptr nonnull readnone align 8 captures(none) %0, ptr noundef nonnull readonly align 8 captures(none) dereferenceable(224) %1) local_unnamed_addr #12 align 2 {
  %3 = load ptr, ptr %1, align 8, !tbaa !233
  %4 = tail call noundef i32 @_ZNKSt7__cxx1112basic_stringIcSt11char_traitsIcESaIcEE7compareEPKc(ptr noundef nonnull align 8 dereferenceable(32) %3, ptr noundef nonnull @.str.58) #28
  %5 = icmp eq i32 %4, 0
  br i1 %5, label %30, label %6

6:                                                ; preds = %2
  %7 = load ptr, ptr %1, align 8, !tbaa !233
  %8 = tail call noundef i32 @_ZNKSt7__cxx1112basic_stringIcSt11char_traitsIcESaIcEE7compareEPKc(ptr noundef nonnull align 8 dereferenceable(32) %7, ptr noundef nonnull @.str.59) #28
  %9 = icmp eq i32 %8, 0
  br i1 %9, label %30, label %10

10:                                               ; preds = %6
  %11 = load ptr, ptr %1, align 8, !tbaa !233
  %12 = tail call noundef i32 @_ZNKSt7__cxx1112basic_stringIcSt11char_traitsIcESaIcEE7compareEPKc(ptr noundef nonnull align 8 dereferenceable(32) %11, ptr noundef nonnull @.str.60) #28
  %13 = icmp eq i32 %12, 0
  br i1 %13, label %30, label %14

14:                                               ; preds = %10
  %15 = load ptr, ptr %1, align 8, !tbaa !233
  %16 = tail call noundef i32 @_ZNKSt7__cxx1112basic_stringIcSt11char_traitsIcESaIcEE7compareEPKc(ptr noundef nonnull align 8 dereferenceable(32) %15, ptr noundef nonnull @.str.61) #28
  %17 = icmp eq i32 %16, 0
  br i1 %17, label %30, label %18

18:                                               ; preds = %14
  %19 = load ptr, ptr %1, align 8, !tbaa !233
  %20 = tail call noundef i32 @_ZNKSt7__cxx1112basic_stringIcSt11char_traitsIcESaIcEE7compareEPKc(ptr noundef nonnull align 8 dereferenceable(32) %19, ptr noundef nonnull @.str.62) #28
  %21 = icmp eq i32 %20, 0
  br i1 %21, label %30, label %22

22:                                               ; preds = %18
  %23 = load ptr, ptr %1, align 8, !tbaa !233
  %24 = tail call noundef i32 @_ZNKSt7__cxx1112basic_stringIcSt11char_traitsIcESaIcEE7compareEPKc(ptr noundef nonnull align 8 dereferenceable(32) %23, ptr noundef nonnull @.str.63) #28
  %25 = icmp eq i32 %24, 0
  br i1 %25, label %30, label %26

26:                                               ; preds = %22
  %27 = load ptr, ptr %1, align 8, !tbaa !233
  %28 = tail call noundef i32 @_ZNKSt7__cxx1112basic_stringIcSt11char_traitsIcESaIcEE7compareEPKc(ptr noundef nonnull align 8 dereferenceable(32) %27, ptr noundef nonnull @.str.64) #28
  %29 = icmp eq i32 %28, 0
  br label %30

30:                                               ; preds = %26, %22, %18, %14, %10, %6, %2
  %31 = phi i1 [ true, %22 ], [ true, %18 ], [ true, %14 ], [ true, %10 ], [ true, %6 ], [ true, %2 ], [ %29, %26 ]
  ret i1 %31
}